target datalayout = "e-m:e-p270:32:32-p271:32:32-p272:64:64-i64:64-i128:128-f80:128-n8:16:32:64-S128"
target triple = "x86_64-pc-linux-gnu"

%struct._object = type { %union.anon, ptr }
%union.anon = type { i64 }
%struct.PyVarObject = type { %struct._object, i64 }
%struct._typeobject = type { %struct.PyVarObject, ptr, i64, i64, ptr, i64, ptr, ptr, ptr, ptr, ptr, ptr, ptr, ptr, ptr, ptr, ptr, ptr, ptr, i64, ptr, ptr, ptr, ptr, i64, ptr, ptr, ptr, ptr, ptr, ptr, ptr, ptr, ptr, i64, ptr, ptr, ptr, ptr, ptr, ptr, ptr, ptr, ptr, ptr, ptr, i32, ptr, ptr, i8, i16 }
%struct.anon = type { i32, i32 }
%struct.dequeobject = type { %struct.PyVarObject, ptr, ptr, i64, i64, i64, i64, i64, [16 x ptr], ptr }

@_Py_NoneStruct = external global %struct._object, align 8
@PyExc_StopIteration = external global ptr, align 8

; Function Attrs: alwaysinline nounwind uwtable
define internal i32 @_Py_IsImmortal(ptr noundef %0) #4 {
  %2 = alloca ptr, align 8
  store ptr %0, ptr %2, align 8, !tbaa !4
  %3 = load ptr, ptr %2, align 8, !tbaa !4
  %4 = getelementptr inbounds nuw %struct._object, ptr %3, i32 0, i32 0
  %5 = getelementptr inbounds nuw %struct.anon, ptr %4, i32 0, i32 0
  %6 = load i32, ptr %5, align 8, !tbaa !39
  %7 = icmp slt i32 %6, 0
  %8 = zext i1 %7 to i32
  ret i32 %8
}

; Function Attrs: nounwind uwtable
define internal ptr @finalize_iterator(ptr noundef %0) #0 {
  %2 = alloca ptr, align 8
  %3 = alloca ptr, align 8
  store ptr %0, ptr %3, align 8, !tbaa !4
  %4 = call ptr @PyErr_Occurred()
  %5 = icmp ne ptr %4, null
  br i1 %5, label %6, label %14

6:                                                ; preds = %1
  %7 = load ptr, ptr @PyExc_StopIteration, align 8, !tbaa !4
  %8 = call i32 @PyErr_ExceptionMatches(ptr noundef %7)
  %9 = icmp ne i32 %8, 0
  br i1 %9, label %10, label %11

10:                                               ; preds = %6
  call void @PyErr_Clear()
  br label %13

11:                                               ; preds = %6
  %12 = load ptr, ptr %3, align 8, !tbaa !4
  call void @Py_DECREF(ptr noundef %12)
  store ptr null, ptr %2, align 8
  br label %16

13:                                               ; preds = %10
  br label %14

14:                                               ; preds = %13, %1
  %15 = load ptr, ptr %3, align 8, !tbaa !4
  call void @Py_DECREF(ptr noundef %15)
  store ptr @_Py_NoneStruct, ptr %2, align 8
  br label %16

16:                                               ; preds = %14, %11
  %17 = load ptr, ptr %2, align 8
  ret ptr %17
}

; Function Attrs: inlinehint nounwind uwtable
define internal ptr @_Py_TYPE(ptr noundef %0) #3 {
  %2 = alloca ptr, align 8
  store ptr %0, ptr %2, align 8, !tbaa !4
  %3 = load ptr, ptr %2, align 8, !tbaa !4
  %4 = getelementptr inbounds nuw %struct._object, ptr %3, i32 0, i32 1
  %5 = load ptr, ptr %4, align 8, !tbaa !26
  ret ptr %5
}

; Function Attrs: inlinehint nounwind uwtable
define internal i64 @Py_SIZE(ptr noundef %0) #3 {
  %2 = alloca ptr, align 8
  store ptr %0, ptr %2, align 8, !tbaa !4
  %3 = load ptr, ptr %2, align 8, !tbaa !4
  %4 = getelementptr inbounds nuw %struct.PyVarObject, ptr %3, i32 0, i32 1
  %5 = load i64, ptr %4, align 8, !tbaa !72
  ret i64 %5
}

; Function Attrs: alwaysinline nounwind uwtable
define internal void @Py_DECREF(ptr noundef %0) #4 {
  %2 = alloca ptr, align 8
  store ptr %0, ptr %2, align 8, !tbaa !4
  %3 = load ptr, ptr %2, align 8, !tbaa !4
  %4 = call i32 @_Py_IsImmortal(ptr noundef %3)
  %5 = icmp ne i32 %4, 0
  br i1 %5, label %6, label %7

6:                                                ; preds = %1
  br label %16

7:                                                ; preds = %1
  %8 = load ptr, ptr %2, align 8, !tbaa !4
  %9 = getelementptr inbounds nuw %struct._object, ptr %8, i32 0, i32 0
  %10 = getelementptr inbounds nuw %struct.anon, ptr %9, i32 0, i32 0
  %11 = load i32, ptr %10, align 8, !tbaa !39
  %12 = add i32 %11, -1
  store i32 %12, ptr %10, align 8, !tbaa !39
  %13 = icmp eq i32 %12, 0
  br i1 %13, label %14, label %16

14:                                               ; preds = %7
  %15 = load ptr, ptr %2, align 8, !tbaa !4
  call void @_Py_Dealloc(ptr noundef %15)
  br label %16

16:                                               ; preds = %6, %14, %7
  ret void
}

; Function Attrs: nounwind uwtable
define internal ptr @deque_extendleft_impl(ptr noundef %0, ptr noundef %1) #0 {
  %3 = alloca ptr, align 8
  %4 = alloca ptr, align 8
  %5 = alloca ptr, align 8
  %6 = alloca ptr, align 8
  %7 = alloca ptr, align 8
  %8 = alloca ptr, align 8
  %9 = alloca i64, align 8
  %10 = alloca ptr, align 8
  %11 = alloca ptr, align 8
  %12 = alloca i32, align 4
  store ptr %0, ptr %4, align 8, !tbaa !43
  store ptr %1, ptr %5, align 8, !tbaa !4
  call void @llvm.lifetime.start.p0(i64 8, ptr %6) #7
  call void @llvm.lifetime.start.p0(i64 8, ptr %7) #7
  call void @llvm.lifetime.start.p0(i64 8, ptr %8) #7
  call void @llvm.lifetime.start.p0(i64 8, ptr %9) #7
  %13 = load ptr, ptr %4, align 8, !tbaa !43
  %14 = getelementptr inbounds nuw %struct.dequeobject, ptr %13, i32 0, i32 6
  %15 = load i64, ptr %14, align 8, !tbaa !55
  store i64 %15, ptr %9, align 8, !tbaa !24
  %16 = load ptr, ptr %4, align 8, !tbaa !43
  %17 = load ptr, ptr %5, align 8, !tbaa !4
  %18 = icmp eq ptr %16, %17
  br i1 %18, label %19, label %32

19:                                               ; preds = %2
  call void @llvm.lifetime.start.p0(i64 8, ptr %10) #7
  call void @llvm.lifetime.start.p0(i64 8, ptr %11) #7
  %20 = load ptr, ptr %5, align 8, !tbaa !4
  %21 = call ptr @PySequence_List(ptr noundef %20)
  store ptr %21, ptr %11, align 8, !tbaa !4
  %22 = load ptr, ptr %11, align 8, !tbaa !4
  %23 = icmp eq ptr %22, null
  br i1 %23, label %24, label %25

24:                                               ; preds = %19
  store ptr null, ptr %3, align 8
  store i32 1, ptr %12, align 4
  br label %31

25:                                               ; preds = %19
  %26 = load ptr, ptr %4, align 8, !tbaa !43
  %27 = load ptr, ptr %11, align 8, !tbaa !4
  %28 = call ptr @deque_extendleft_impl(ptr noundef %26, ptr noundef %27)
  store ptr %28, ptr %10, align 8, !tbaa !4
  %29 = load ptr, ptr %11, align 8, !tbaa !4
  call void @Py_DECREF(ptr noundef %29)
  %30 = load ptr, ptr %10, align 8, !tbaa !4
  store ptr %30, ptr %3, align 8
  store i32 1, ptr %12, align 4
  br label %31

31:                                               ; preds = %25, %24
  call void @llvm.lifetime.end.p0(i64 8, ptr %11) #7
  call void @llvm.lifetime.end.p0(i64 8, ptr %10) #7
  br label %76

32:                                               ; preds = %2
  %33 = load ptr, ptr %5, align 8, !tbaa !4
  %34 = call ptr @PyObject_GetIter(ptr noundef %33)
  store ptr %34, ptr %6, align 8, !tbaa !4
  %35 = load ptr, ptr %6, align 8, !tbaa !4
  %36 = icmp eq ptr %35, null
  br i1 %36, label %37, label %38

37:                                               ; preds = %32
  store ptr null, ptr %3, align 8
  store i32 1, ptr %12, align 4
  br label %76

38:                                               ; preds = %32
  %39 = load i64, ptr %9, align 8, !tbaa !24
  %40 = icmp eq i64 %39, 0
  br i1 %40, label %41, label %44

41:                                               ; preds = %38
  %42 = load ptr, ptr %6, align 8, !tbaa !4
  %43 = call ptr @consume_iterator(ptr noundef %42)
  store ptr %43, ptr %3, align 8
  store i32 1, ptr %12, align 4
  br label %76

44:                                               ; preds = %38
  %45 = load ptr, ptr %4, align 8, !tbaa !43
  %46 = call i64 @Py_SIZE(ptr noundef %45)
  %47 = icmp eq i64 %46, 0
  br i1 %47, label %48, label %53

48:                                               ; preds = %44
  %49 = load ptr, ptr %4, align 8, !tbaa !43
  %50 = getelementptr inbounds nuw %struct.dequeobject, ptr %49, i32 0, i32 3
  store i64 63, ptr %50, align 8, !tbaa !56
  %51 = load ptr, ptr %4, align 8, !tbaa !43
  %52 = getelementptr inbounds nuw %struct.dequeobject, ptr %51, i32 0, i32 4
  store i64 62, ptr %52, align 8, !tbaa !61
  br label %53

53:                                               ; preds = %48, %44
  %54 = load ptr, ptr %6, align 8, !tbaa !4
  %55 = call ptr @_Py_TYPE(ptr noundef %54)
  %56 = getelementptr inbounds nuw %struct._typeobject, ptr %55, i32 0, i32 26
  %57 = load ptr, ptr %56, align 8, !tbaa !78
  store ptr %57, ptr %8, align 8, !tbaa !9
  br label %58

58:                                               ; preds = %72, %53
  %59 = load ptr, ptr %8, align 8, !tbaa !9
  %60 = load ptr, ptr %6, align 8, !tbaa !4
  %61 = call ptr %59(ptr noundef %60)
  store ptr %61, ptr %7, align 8, !tbaa !4
  %62 = icmp ne ptr %61, null
  br i1 %62, label %63, label %73

63:                                               ; preds = %58
  %64 = load ptr, ptr %4, align 8, !tbaa !43
  %65 = load ptr, ptr %7, align 8, !tbaa !4
  %66 = load i64, ptr %9, align 8, !tbaa !24
  %67 = call i32 @deque_appendleft_lock_held(ptr noundef %64, ptr noundef %65, i64 noundef %66)
  %68 = icmp eq i32 %67, -1
  br i1 %68, label %69, label %72

69:                                               ; preds = %63
  %70 = load ptr, ptr %7, align 8, !tbaa !4
  call void @Py_DECREF(ptr noundef %70)
  %71 = load ptr, ptr %6, align 8, !tbaa !4
  call void @Py_DECREF(ptr noundef %71)
  store ptr null, ptr %3, align 8
  store i32 1, ptr %12, align 4
  br label %76

72:                                               ; preds = %63
  br label %58, !llvm.loop !83

73:                                               ; preds = %58
  %74 = load ptr, ptr %6, align 8, !tbaa !4
  %75 = call ptr @finalize_iterator(ptr noundef %74)
  store ptr %75, ptr %3, align 8
  store i32 1, ptr %12, align 4
  br label %76

76:                                               ; preds = %73, %69, %41, %37, %31
  call void @llvm.lifetime.end.p0(i64 8, ptr %9) #7
  call void @llvm.lifetime.end.p0(i64 8, ptr %8) #7
  call void @llvm.lifetime.end.p0(i64 8, ptr %7) #7
  call void @llvm.lifetime.end.p0(i64 8, ptr %6) #7
  %77 = load ptr, ptr %3, align 8
  ret ptr %77
}